target datalayout = "e-m:e-p270:32:32-p271:32:32-p272:64:64-i64:64-i128:128-f80:128-n8:16:32:64-S128"
target triple = "x86_64-pc-linux-gnu"

%"class.std::_Function_base" = type { %"union.std::_Any_data", ptr }
%"union.std::_Any_data" = type { %"union.std::_Nocopy_types" }
%"union.std::_Nocopy_types" = type { { i64, i64 } }
%"class.std::function.329" = type { %"class.std::_Function_base", ptr }
%class.anon.332 = type { i8 }

; Function Attrs: mustprogress nounwind uwtable
define linkonce_odr dso_local noundef ptr @_ZNSt9_Any_data9_M_accessEv(ptr noundef nonnull align 8 dereferenceable(16) %0) #5 comdat align 2 {
  %2 = alloca ptr, align 8
  store ptr %0, ptr %2, align 8
  %3 = load ptr, ptr %2, align 8
  %4 = getelementptr inbounds [16 x i8], ptr %3, i64 0, i64 0
  ret ptr %4
}

; Function Attrs: mustprogress nounwind uwtable
define internal void @"_ZNSt14_Function_base13_Base_managerIZN12_GLOBAL__N_124HandleHasRootNameCommandERKSt6vectorINSt7__cxx1112basic_stringIcSt11char_traitsIcESaIcEEESaIS8_EER17cmExecutionStatusE3$_0E9_M_createISF_EEvRSt9_Any_dataOT_St17integral_constantIbLb1EE"(ptr noundef nonnull align 8 dereferenceable(16) %0, ptr noundef nonnull align 1 dereferenceable(1) %1) #5 align 2 {
  %3 = alloca ptr, align 8
  %4 = alloca ptr, align 8
  store ptr %0, ptr %3, align 8
  store ptr %1, ptr %4, align 8
  %5 = load ptr, ptr %3, align 8
  %6 = call noundef ptr @_ZNSt9_Any_data9_M_accessEv(ptr noundef nonnull align 8 dereferenceable(16) %5) #3
  ret void
}

; Function Attrs: mustprogress nounwind uwtable
define linkonce_odr dso_local void @_ZNSt14_Function_baseD2Ev(ptr noundef nonnull align 8 dereferenceable(24) %0) unnamed_addr #5 comdat align 2 personality ptr @__gxx_personality_v0 {
  %2 = alloca ptr, align 8
  store ptr %0, ptr %2, align 8
  %3 = load ptr, ptr %2, align 8
  %4 = getelementptr inbounds %"class.std::_Function_base", ptr %3, i32 0, i32 1
  %5 = load ptr, ptr %4, align 8
  %6 = icmp ne ptr %5, null
  br i1 %6, label %7, label %14

7:                                                ; preds = %1
  %8 = getelementptr inbounds %"class.std::_Function_base", ptr %3, i32 0, i32 1
  %9 = load ptr, ptr %8, align 8
  %10 = getelementptr inbounds %"class.std::_Function_base", ptr %3, i32 0, i32 0
  %11 = getelementptr inbounds %"class.std::_Function_base", ptr %3, i32 0, i32 0
  %12 = invoke noundef zeroext i1 %9(ptr noundef nonnull align 8 dereferenceable(16) %10, ptr noundef nonnull align 8 dereferenceable(16) %11, i32 noundef 3)
          to label %13 unwind label %15

13:                                               ; preds = %7
  br label %14

14:                                               ; preds = %13, %1
  ret void

15:                                               ; preds = %7
  %16 = landingpad { ptr, i32 }
          catch ptr null
  %17 = extractvalue { ptr, i32 } %16, 0
  call void @__clang_call_terminate(ptr %17) #16
  unreachable
}

; Function Attrs: mustprogress nounwind uwtable
define internal void @"_ZNSt14_Function_base13_Base_managerIZN12_GLOBAL__N_124HandleHasRootNameCommandERKSt6vectorINSt7__cxx1112basic_stringIcSt11char_traitsIcESaIcEEESaIS8_EER17cmExecutionStatusE3$_0E15_M_init_functorISF_EEvRSt9_Any_dataOT_"(ptr noundef nonnull align 8 dereferenceable(16) %0, ptr noundef nonnull align 1 dereferenceable(1) %1) #5 align 2 personality ptr @__gxx_personality_v0 {
  %3 = alloca ptr, align 8
  %4 = alloca ptr, align 8
  store ptr %0, ptr %3, align 8
  store ptr %1, ptr %4, align 8
  %5 = load ptr, ptr %3, align 8
  %6 = load ptr, ptr %4, align 8
  invoke void @"_ZNSt14_Function_base13_Base_managerIZN12_GLOBAL__N_124HandleHasRootNameCommandERKSt6vectorINSt7__cxx1112basic_stringIcSt11char_traitsIcESaIcEEESaIS8_EER17cmExecutionStatusE3$_0E9_M_createISF_EEvRSt9_Any_dataOT_St17integral_constantIbLb1EE"(ptr noundef nonnull align 8 dereferenceable(16) %5, ptr noundef nonnull align 1 dereferenceable(1) %6)
          to label %7 unwind label %8

7:                                                ; preds = %2
  ret void

8:                                                ; preds = %2
  %9 = landingpad { ptr, i32 }
          catch ptr null
  %10 = extractvalue { ptr, i32 } %9, 0
  call void @__clang_call_terminate(ptr %10) #16
  unreachable
}

; Function Attrs: mustprogress nounwind uwtable
define internal noundef zeroext i1 @"_ZNSt14_Function_base13_Base_managerIZN12_GLOBAL__N_124HandleHasRootNameCommandERKSt6vectorINSt7__cxx1112basic_stringIcSt11char_traitsIcESaIcEEESaIS8_EER17cmExecutionStatusE3$_0E21_M_not_empty_functionISF_EEbRKT_"(ptr noundef nonnull align 1 dereferenceable(1) %0) #5 align 2 {
  %2 = alloca ptr, align 8
  store ptr %0, ptr %2, align 8
  ret i1 true
}

; Function Attrs: mustprogress nounwind uwtable
define linkonce_odr dso_local void @_ZNSt14_Function_baseC2Ev(ptr noundef nonnull align 8 dereferenceable(24) %0) unnamed_addr #5 comdat align 2 {
  %2 = alloca ptr, align 8
  store ptr %0, ptr %2, align 8
  %3 = load ptr, ptr %2, align 8
  %4 = getelementptr inbounds %"class.std::_Function_base", ptr %3, i32 0, i32 0
  store ptr null, ptr %4, align 8
  %5 = getelementptr inbounds %"class.std::_Function_base", ptr %3, i32 0, i32 1
  store ptr null, ptr %5, align 8
  ret void
}

; Function Attrs: mustprogress nounwind uwtable
define linkonce_odr dso_local void @_ZNSt8functionIFbRK11cmCMakePathEED2Ev(ptr noundef nonnull align 8 dereferenceable(32) %0) unnamed_addr #5 comdat align 2 {
  %2 = alloca ptr, align 8
  store ptr %0, ptr %2, align 8
  %3 = load ptr, ptr %2, align 8
  call void @_ZNSt14_Function_baseD2Ev(ptr noundef nonnull align 8 dereferenceable(24) %3) #3
  ret void
}

; Function Attrs: mustprogress nounwind uwtable
define internal void @"_ZNSt8functionIFbRK11cmCMakePathEEC2IZN12_GLOBAL__N_124HandleHasRootNameCommandERKSt6vectorINSt7__cxx1112basic_stringIcSt11char_traitsIcESaIcEEESaISD_EER17cmExecutionStatusE3$_0vEEOT_"(ptr noundef nonnull align 8 dereferenceable(32) %0, ptr noundef nonnull align 1 dereferenceable(1) %1) unnamed_addr #5 align 2 {
  %3 = alloca ptr, align 8
  %4 = alloca ptr, align 8
  store ptr %0, ptr %3, align 8
  store ptr %1, ptr %4, align 8
  %5 = load ptr, ptr %3, align 8
  %6 = getelementptr inbounds i8, ptr %5, i64 0
  call void @llvm.memset.p0.i64(ptr align 8 %6, i8 0, i64 24, i1 false)
  call void @_ZNSt14_Function_baseC2Ev(ptr noundef nonnull align 8 dereferenceable(24) %5) #3
  %7 = getelementptr inbounds %"class.std::function.329", ptr %5, i32 0, i32 1
  store ptr null, ptr %7, align 8
  %8 = load ptr, ptr %4, align 8
  %9 = call noundef zeroext i1 @"_ZNSt14_Function_base13_Base_managerIZN12_GLOBAL__N_124HandleHasRootNameCommandERKSt6vectorINSt7__cxx1112basic_stringIcSt11char_traitsIcESaIcEEESaIS8_EER17cmExecutionStatusE3$_0E21_M_not_empty_functionISF_EEbRKT_"(ptr noundef nonnull align 1 dereferenceable(1) %8) #3
  br i1 %9, label %10, label %15

10:                                               ; preds = %2
  %11 = getelementptr inbounds %"class.std::_Function_base", ptr %5, i32 0, i32 0
  %12 = load ptr, ptr %4, align 8
  call void @"_ZNSt14_Function_base13_Base_managerIZN12_GLOBAL__N_124HandleHasRootNameCommandERKSt6vectorINSt7__cxx1112basic_stringIcSt11char_traitsIcESaIcEEESaIS8_EER17cmExecutionStatusE3$_0E15_M_init_functorISF_EEvRSt9_Any_dataOT_"(ptr noundef nonnull align 8 dereferenceable(16) %11, ptr noundef nonnull align 1 dereferenceable(1) %12) #3
  %13 = getelementptr inbounds %"class.std::function.329", ptr %5, i32 0, i32 1
  store ptr @"_ZNSt17_Function_handlerIFbRK11cmCMakePathEZN12_GLOBAL__N_124HandleHasRootNameCommandERKSt6vectorINSt7__cxx1112basic_stringIcSt11char_traitsIcESaIcEEESaISB_EER17cmExecutionStatusE3$_0E9_M_invokeERKSt9_Any_dataS2_", ptr %13, align 8
  %14 = getelementptr inbounds %"class.std::_Function_base", ptr %5, i32 0, i32 1
  store ptr @"_ZNSt17_Function_handlerIFbRK11cmCMakePathEZN12_GLOBAL__N_124HandleHasRootNameCommandERKSt6vectorINSt7__cxx1112basic_stringIcSt11char_traitsIcESaIcEEESaISB_EER17cmExecutionStatusE3$_0E10_M_managerERSt9_Any_dataRKSK_St18_Manager_operation", ptr %14, align 8
  br label %15

15:                                               ; preds = %10, %2
  ret void
}

; Function Attrs: mustprogress uwtable
define internal noundef zeroext i1 @_ZN12_GLOBAL__N_124HandleHasRootNameCommandERKSt6vectorINSt7__cxx1112basic_stringIcSt11char_traitsIcESaIcEEESaIS6_EER17cmExecutionStatus(ptr noundef nonnull align 8 dereferenceable(24) %0, ptr noundef nonnull align 8 dereferenceable(80) %1) #4 personality ptr @__gxx_personality_v0 {
  %3 = alloca ptr, align 8
  %4 = alloca ptr, align 8
  %5 = alloca %"class.std::function.329", align 8
  %6 = alloca %class.anon.332, align 1
  %7 = alloca ptr, align 8
  %8 = alloca i32, align 4
  store ptr %0, ptr %3, align 8
  store ptr %1, ptr %4, align 8
  %9 = load ptr, ptr %3, align 8
  %10 = load ptr, ptr %4, align 8
  call void @"_ZNSt8functionIFbRK11cmCMakePathEEC2IZN12_GLOBAL__N_124HandleHasRootNameCommandERKSt6vectorINSt7__cxx1112basic_stringIcSt11char_traitsIcESaIcEEESaISD_EER17cmExecutionStatusE3$_0vEEOT_"(ptr noundef nonnull align 8 dereferenceable(32) %5, ptr noundef nonnull align 1 dereferenceable(1) %6) #3
  %11 = invoke noundef zeroext i1 @_ZN12_GLOBAL__N_120HandleHasItemCommandERKSt6vectorINSt7__cxx1112basic_stringIcSt11char_traitsIcESaIcEEESaIS6_EER17cmExecutionStatusRKSt8functionIFbRK11cmCMakePathEE(ptr noundef nonnull align 8 dereferenceable(24) %9, ptr noundef nonnull align 8 dereferenceable(80) %10, ptr noundef nonnull align 8 dereferenceable(32) %5)
          to label %12 unwind label %13

12:                                               ; preds = %2
  call void @_ZNSt8functionIFbRK11cmCMakePathEED2Ev(ptr noundef nonnull align 8 dereferenceable(32) %5) #3
  ret i1 %11

13:                                               ; preds = %2
  %14 = landingpad { ptr, i32 }
          cleanup
  %15 = extractvalue { ptr, i32 } %14, 0
  store ptr %15, ptr %7, align 8
  %16 = extractvalue { ptr, i32 } %14, 1
  store i32 %16, ptr %8, align 4
  call void @_ZNSt8functionIFbRK11cmCMakePathEED2Ev(ptr noundef nonnull align 8 dereferenceable(32) %5) #3
  br label %17

17:                                               ; preds = %13
  %18 = load ptr, ptr %7, align 8
  %19 = load i32, ptr %8, align 4
  %20 = insertvalue { ptr, i32 } poison, ptr %18, 0
  %21 = insertvalue { ptr, i32 } %20, i32 %19, 1
  resume { ptr, i32 } %21
}